(lp0
(lp1
(iobjects_cluster_generation
Object
p2
(dp3
S'ind'
p4
I0
sS'features'
p5
cnumpy.core.multiarray
_reconstruct
p6
(cnumpy
ndarray
p7
(I0
tp8
S'b'
p9
tp10
Rp11
(I1
(I2
tp12
cnumpy
dtype
p13
(S'f8'
p14
I0
I1
tp15
Rp16
(I3
S'<'
p17
NNNI-1
I-1
I0
tp18
bI00
S'xK\xa8\xeb\xdctU@\xe2\xb7\xe9G\x14\x88(@'
p19
tp20
bsba(iobjects_cluster_generation
Object
p21
(dp22
g4
I1
sg5
g6
(g7
(I0
tp23
g9
tp24
Rp25
(I1
(I2
tp26
g16
I00
S'Y\x8a\xeb.\x8flU@00\xae\x859\xce3@'
p27
tp28
bsba(iobjects_cluster_generation
Object
p29
(dp30
g4
I2
sg5
g6
(g7
(I0
tp31
g9
tp32
Rp33
(I1
(I2
tp34
g16
I00
S'\x93\xd5\xc6\x10\xe0@U@\xcfJ\xae\xb1\xf8\x19+@'
p35
tp36
bsba(iobjects_cluster_generation
Object
p37
(dp38
g4
I3
sg5
g6
(g7
(I0
tp39
g9
tp40
Rp41
(I1
(I2
tp42
g16
I00
S'^}\xb3\xcb@3U@\xa2]\xa4~|\xee%@'
p43
tp44
bsba(iobjects_cluster_generation
Object
p45
(dp46
g4
I4
sg5
g6
(g7
(I0
tp47
g9
tp48
Rp49
(I1
(I2
tp50
g16
I00
S'\x9b\xff\x12\x1a\xb2\xedT@\x1fWG\x13\xe6\xa25@'
p51
tp52
bsba(iobjects_cluster_generation
Object
p53
(dp54
g4
I5
sg5
g6
(g7
(I0
tp55
g9
tp56
Rp57
(I1
(I2
tp58
g16
I00
S'\x16\x19y8\xf0bU@\xa5\xf8\x1b\x8bgj/@'
p59
tp60
bsba(iobjects_cluster_generation
Object
p61
(dp62
g4
I6
sg5
g6
(g7
(I0
tp63
g9
tp64
Rp65
(I1
(I2
tp66
g16
I00
S'\x00\xbb\x84c\r\x92U@\xb6\xc9g,\xeby*@'
p67
tp68
bsba(iobjects_cluster_generation
Object
p69
(dp70
g4
I7
sg5
g6
(g7
(I0
tp71
g9
tp72
Rp73
(I1
(I2
tp74
g16
I00
S'/F3;\xef\xabU@0\xc4<WJ7@@'
p75
tp76
bsba(iobjects_cluster_generation
Object
p77
(dp78
g4
I8
sg5
g6
(g7
(I0
tp79
g9
tp80
Rp81
(I1
(I2
tp82
g16
I00
S"l'\xb8\xe7AfU@\xd0\xa7/\xd3\xfc\xd4\xf4?"
p83
tp84
bsba(iobjects_cluster_generation
Object
p85
(dp86
g4
I9
sg5
g6
(g7
(I0
tp87
g9
tp88
Rp89
(I1
(I2
tp90
g16
I00
S'\x04\xfb\x9f\xd1\x1c\x8fU@\xe4\xedt\xd9\xc7\xaa2@'
p91
tp92
bsba(iobjects_cluster_generation
Object
p93
(dp94
g4
I10
sg5
g6
(g7
(I0
tp95
g9
tp96
Rp97
(I1
(I2
tp98
g16
I00
S'\xdeDL\x97\x19\x0fU@\x9a\x1c\xdcjb\xba0@'
p99
tp100
bsba(iobjects_cluster_generation
Object
p101
(dp102
g4
I11
sg5
g6
(g7
(I0
tp103
g9
tp104
Rp105
(I1
(I2
tp106
g16
I00
S'\xd7\x9aF\x1c\t\xc7U@\xf5\xe0J\x01z\xd4)@'
p107
tp108
bsba(iobjects_cluster_generation
Object
p109
(dp110
g4
I12
sg5
g6
(g7
(I0
tp111
g9
tp112
Rp113
(I1
(I2
tp114
g16
I00
S'0\xbc\x1a+fKU@\x0e\x8e\xc0B\xb2h-@'
p115
tp116
bsba(iobjects_cluster_generation
Object
p117
(dp118
g4
I13
sg5
g6
(g7
(I0
tp119
g9
tp120
Rp121
(I1
(I2
tp122
g16
I00
S'\xe6uA\x0fw{U@&\xbaK\x80C|+@'
p123
tp124
bsba(iobjects_cluster_generation
Object
p125
(dp126
g4
I14
sg5
g6
(g7
(I0
tp127
g9
tp128
Rp129
(I1
(I2
tp130
g16
I00
S'\xcc\xcbZ\xc9\x0cUU@\xe8\x8c\x08\xf7|\xc6 @'
p131
tp132
bsba(iobjects_cluster_generation
Object
p133
(dp134
g4
I15
sg5
g6
(g7
(I0
tp135
g9
tp136
Rp137
(I1
(I2
tp138
g16
I00
S'\x90\x00\xff\xfc\x15\x96U@ {e\xc88\x12$@'
p139
tp140
bsba(iobjects_cluster_generation
Object
p141
(dp142
g4
I16
sg5
g6
(g7
(I0
tp143
g9
tp144
Rp145
(I1
(I2
tp146
g16
I00
S"\x85KXj\xf58U@Y\xfe#5\xb4\x9c'@"
p147
tp148
bsba(iobjects_cluster_generation
Object
p149
(dp150
g4
I17
sg5
g6
(g7
(I0
tp151
g9
tp152
Rp153
(I1
(I2
tp154
g16
I00
S'\xfd\xe53p\xa9sU@V\xeb\xfc2\x11\xa5)@'
p155
tp156
bsba(iobjects_cluster_generation
Object
p157
(dp158
g4
I18
sg5
g6
(g7
(I0
tp159
g9
tp160
Rp161
(I1
(I2
tp162
g16
I00
S'\xca\xe4\\\xea\xf3\x9aU@R\xe2\x0f\x18\xe0\xb2,@'
p163
tp164
bsba(iobjects_cluster_generation
Object
p165
(dp166
g4
I19
sg5
g6
(g7
(I0
tp167
g9
tp168
Rp169
(I1
(I2
tp170
g16
I00
S'\xe0\xda\x9e\x18\xdf\x8cU@p\xd2\xb4\xeam-.@'
p171
tp172
bsba(iobjects_cluster_generation
Object
p173
(dp174
g4
I0
sg5
g6
(g7
(I0
tp175
g9
tp176
Rp177
(I1
(I2
tp178
g16
I00
S'\xec\x08\x1b\xc5,\xbaY@\x96\xd6\xa4\xcfl\xa7[\xc0'
p179
tp180
bsba(iobjects_cluster_generation
Object
p181
(dp182
g4
I1
sg5
g6
(g7
(I0
tp183
g9
tp184
Rp185
(I1
(I2
tp186
g16
I00
S'\xca\xabQR\xc2tY@\x9a\x1fs(/gY\xc0'
p187
tp188
bsba(iobjects_cluster_generation
Object
p189
(dp190
g4
I2
sg5
g6
(g7
(I0
tp191
g9
tp192
Rp193
(I1
(I2
tp194
g16
I00
S'1\xfb\x16\xa3\x92\xa4Y@\xfa\x1d\x1c\xb1\x95\xc4\\\xc0'
p195
tp196
bsba(iobjects_cluster_generation
Object
p197
(dp198
g4
I3
sg5
g6
(g7
(I0
tp199
g9
tp200
Rp201
(I1
(I2
tp202
g16
I00
S'\xa9\xa1\x8b\x99icY@B\xb0%\x18E\xc0\\\xc0'
p203
tp204
bsba(iobjects_cluster_generation
Object
p205
(dp206
g4
I4
sg5
g6
(g7
(I0
tp207
g9
tp208
Rp209
(I1
(I2
tp210
g16
I00
S'H\x18\xef\xb1\xc8\x05Y@~x\x82!)M[\xc0'
p211
tp212
bsba(iobjects_cluster_generation
Object
p213
(dp214
g4
I5
sg5
g6
(g7
(I0
tp215
g9
tp216
Rp217
(I1
(I2
tp218
g16
I00
S'\x92\xc3\x9b\xd7o\xa9Y@|\xac~J\x97b\\\xc0'
p219
tp220
bsba(iobjects_cluster_generation
Object
p221
(dp222
g4
I6
sg5
g6
(g7
(I0
tp223
g9
tp224
Rp225
(I1
(I2
tp226
g16
I00
S'\xe5+\xe6\x15\xbb\xccY@\x19\x8a+(T\xfaZ\xc0'
p227
tp228
bsba(iobjects_cluster_generation
Object
p229
(dp230
g4
I7
sg5
g6
(g7
(I0
tp231
g9
tp232
Rp233
(I1
(I2
tp234
g16
I00
S'\x10V-\xaehNY@5\xfa9-X\xef[\xc0'
p235
tp236
bsba(iobjects_cluster_generation
Object
p237
(dp238
g4
I8
sg5
g6
(g7
(I0
tp239
g9
tp240
Rp241
(I1
(I2
tp242
g16
I00
S'\xe6\x8at\xa66&Y@\xdd\x9b\xd2\x03\xc4q[\xc0'
p243
tp244
bsba(iobjects_cluster_generation
Object
p245
(dp246
g4
I9
sg5
g6
(g7
(I0
tp247
g9
tp248
Rp249
(I1
(I2
tp250
g16
I00
S'\x16\x8di\xbd\xb5OY@\x93\xff\xd2\n\xc3!\\\xc0'
p251
tp252
bsba(iobjects_cluster_generation
Object
p253
(dp254
g4
I10
sg5
g6
(g7
(I0
tp255
g9
tp256
Rp257
(I1
(I2
tp258
g16
I00
S'\xf7\x17k\xf0@\x92Y@N0\xef\xa4\x9e\xf8[\xc0'
p259
tp260
bsba(iobjects_cluster_generation
Object
p261
(dp262
g4
I11
sg5
g6
(g7
(I0
tp263
g9
tp264
Rp265
(I1
(I2
tp266
g16
I00
S'\x1d\x9f\x94\x11\xe7FY@\xd0F\x1f`\xb4\xfe\\\xc0'
p267
tp268
bsba(iobjects_cluster_generation
Object
p269
(dp270
g4
I12
sg5
g6
(g7
(I0
tp271
g9
tp272
Rp273
(I1
(I2
tp274
g16
I00
S'\xba\x01#\x0bzgY@\xea\xe7\xc5\xfb\xda\xa9Z\xc0'
p275
tp276
bsba(iobjects_cluster_generation
Object
p277
(dp278
g4
I13
sg5
g6
(g7
(I0
tp279
g9
tp280
Rp281
(I1
(I2
tp282
g16
I00
S'\xc8U1\xcc\xa8\xffY@\x01\xe0\xcfx\xf3\xfd\\\xc0'
p283
tp284
bsba(iobjects_cluster_generation
Object
p285
(dp286
g4
I14
sg5
g6
(g7
(I0
tp287
g9
tp288
Rp289
(I1
(I2
tp290
g16
I00
S'\x87\xbd\xd9\xd8"\xaeY@=C"\xf0?\xf2Z\xc0'
p291
tp292
bsba(iobjects_cluster_generation
Object
p293
(dp294
g4
I15
sg5
g6
(g7
(I0
tp295
g9
tp296
Rp297
(I1
(I2
tp298
g16
I00
S'\xe3r\xc6\x93n\x90Y@J~\x9a\x01\x86\xa9[\xc0'
p299
tp300
bsba(iobjects_cluster_generation
Object
p301
(dp302
g4
I16
sg5
g6
(g7
(I0
tp303
g9
tp304
Rp305
(I1
(I2
tp306
g16
I00
S'\xa3\xee?\xcb\xaf\x11Z@m4V\xf7V\x0eZ\xc0'
p307
tp308
bsba(iobjects_cluster_generation
Object
p309
(dp310
g4
I17
sg5
g6
(g7
(I0
tp311
g9
tp312
Rp313
(I1
(I2
tp314
g16
I00
S'2\x98\x0f\xaf\xb0\xa3Y@%\xf1]\xe8l\xf8[\xc0'
p315
tp316
bsba(iobjects_cluster_generation
Object
p317
(dp318
g4
I18
sg5
g6
(g7
(I0
tp319
g9
tp320
Rp321
(I1
(I2
tp322
g16
I00
S'\xb0\xd4\xa0\x0c7EY@\xb6c\xea\x88\x81\x03Z\xc0'
p323
tp324
bsba(iobjects_cluster_generation
Object
p325
(dp326
g4
I19
sg5
g6
(g7
(I0
tp327
g9
tp328
Rp329
(I1
(I2
tp330
g16
I00
S'\xdfc\x13ZztY@J\x97\xbb\x8e\x8c\x10\\\xc0'
p331
tp332
bsba(iobjects_cluster_generation
Object
p333
(dp334
g4
I0
sg5
g6
(g7
(I0
tp335
g9
tp336
Rp337
(I1
(I2
tp338
g16
I00
S'\xe2\x83\x9d\xbc\xd4\x07b@\xc9\x9d\xdc/\xa3\x0bd\xc0'
p339
tp340
bsba(iobjects_cluster_generation
Object
p341
(dp342
g4
I1
sg5
g6
(g7
(I0
tp343
g9
tp344
Rp345
(I1
(I2
tp346
g16
I00
S'\xb2\x150\x88\x9b$b@>wf@%\xefb\xc0'
p347
tp348
bsba(iobjects_cluster_generation
Object
p349
(dp350
g4
I2
sg5
g6
(g7
(I0
tp351
g9
tp352
Rp353
(I1
(I2
tp354
g16
I00
S'E\x81Fd!Vb@8iX\xdaY\xb2d\xc0'
p355
tp356
bsba(iobjects_cluster_generation
Object
p357
(dp358
g4
I3
sg5
g6
(g7
(I0
tp359
g9
tp360
Rp361
(I1
(I2
tp362
g16
I00
S'\x82U\xcac\xb4$b@\x04\xba]\x8f7\xd4c\xc0'
p363
tp364
bsba(iobjects_cluster_generation
Object
p365
(dp366
g4
I4
sg5
g6
(g7
(I0
tp367
g9
tp368
Rp369
(I1
(I2
tp370
g16
I00
S">'\x05\xe9s\xdda@\xae\xbfJ\xe21\xcbc\xc0"
p371
tp372
bsba(iobjects_cluster_generation
Object
p373
(dp374
g4
I5
sg5
g6
(g7
(I0
tp375
g9
tp376
Rp377
(I1
(I2
tp378
g16
I00
S'\x82\xb1\xe8\x00\x13\xc8a@ELs\x9c\x00,c\xc0'
p379
tp380
bsba(iobjects_cluster_generation
Object
p381
(dp382
g4
I6
sg5
g6
(g7
(I0
tp383
g9
tp384
Rp385
(I1
(I2
tp386
g16
I00
S'\n\xebk2\t\xc1a@\xd9\xc7\xa2U\xae\x8fc\xc0'
p387
tp388
bsba(iobjects_cluster_generation
Object
p389
(dp390
g4
I7
sg5
g6
(g7
(I0
tp391
g9
tp392
Rp393
(I1
(I2
tp394
g16
I00
S'\xe3\xd3\xd2\xf7k\x1bb@W\xeb$},\x02d\xc0'
p395
tp396
bsba(iobjects_cluster_generation
Object
p397
(dp398
g4
I8
sg5
g6
(g7
(I0
tp399
g9
tp400
Rp401
(I1
(I2
tp402
g16
I00
S'|\xd7\xea\x9f\x97/b@\x06\x86\xc8\xbe\xe1}c\xc0'
p403
tp404
bsba(iobjects_cluster_generation
Object
p405
(dp406
g4
I9
sg5
g6
(g7
(I0
tp407
g9
tp408
Rp409
(I1
(I2
tp410
g16
I00
S"s\xea\xe1\x97\xb3Qb@'\xc1\x8ckM%c\xc0"
p411
tp412
bsba(iobjects_cluster_generation
Object
p413
(dp414
g4
I10
sg5
g6
(g7
(I0
tp415
g9
tp416
Rp417
(I1
(I2
tp418
g16
I00
S'\xaa\x17hV\x9f\x05b@\x12\xa1\\J\xfd\xdbc\xc0'
p419
tp420
bsba(iobjects_cluster_generation
Object
p421
(dp422
g4
I11
sg5
g6
(g7
(I0
tp423
g9
tp424
Rp425
(I1
(I2
tp426
g16
I00
S'\x0c8\xdbI[\xd1b@/\x02\xb5\xd1\xed\x8bd\xc0'
p427
tp428
bsba(iobjects_cluster_generation
Object
p429
(dp430
g4
I12
sg5
g6
(g7
(I0
tp431
g9
tp432
Rp433
(I1
(I2
tp434
g16
I00
S'P\x80#\xa3\x01\x00b@\xbdu\xde\xbb\x93\xefc\xc0'
p435
tp436
bsba(iobjects_cluster_generation
Object
p437
(dp438
g4
I13
sg5
g6
(g7
(I0
tp439
g9
tp440
Rp441
(I1
(I2
tp442
g16
I00
S"\xac\t\xd52t4b@\xe9c'\xc9\xfc\x98c\xc0"
p443
tp444
bsba(iobjects_cluster_generation
Object
p445
(dp446
g4
I14
sg5
g6
(g7
(I0
tp447
g9
tp448
Rp449
(I1
(I2
tp450
g16
I00
S'\xdf\xc7\x8c\xe1\xed\xf5b@Q(\x9c\xd1\x1bld\xc0'
p451
tp452
bsba(iobjects_cluster_generation
Object
p453
(dp454
g4
I15
sg5
g6
(g7
(I0
tp455
g9
tp456
Rp457
(I1
(I2
tp458
g16
I00
S'\x9a\xc6@\x9c\xed\xe8a@q\x92p\xf7\xb7\xeeb\xc0'
p459
tp460
bsba(iobjects_cluster_generation
Object
p461
(dp462
g4
I16
sg5
g6
(g7
(I0
tp463
g9
tp464
Rp465
(I1
(I2
tp466
g16
I00
S'\xf6H\x13:\x10\x07b@\x91\xbf\xd5\x8b\xc8\x18d\xc0'
p467
tp468
bsba(iobjects_cluster_generation
Object
p469
(dp470
g4
I17
sg5
g6
(g7
(I0
tp471
g9
tp472
Rp473
(I1
(I2
tp474
g16
I00
S'\xa8Iu\x1e\xa6\xeda@=\xa8\xc5>w\xcfc\xc0'
p475
tp476
bsba(iobjects_cluster_generation
Object
p477
(dp478
g4
I18
sg5
g6
(g7
(I0
tp479
g9
tp480
Rp481
(I1
(I2
tp482
g16
I00
S'\xd1<]\xd6\x13\xbaa@\xec\x84\x0f\xc2\xb2)d\xc0'
p483
tp484
bsba(iobjects_cluster_generation
Object
p485
(dp486
g4
I19
sg5
g6
(g7
(I0
tp487
g9
tp488
Rp489
(I1
(I2
tp490
g16
I00
S'a\x9b\xb9m8\xb5a@\x91A\x8eC\xd9\xc6c\xc0'
p491
tp492
bsba(iobjects_cluster_generation
Object
p493
(dp494
g4
I0
sg5
g6
(g7
(I0
tp495
g9
tp496
Rp497
(I1
(I2
tp498
g16
I00
S'\x9e\xdd\x1a\xdf0AZ@\x96\x06\xfdV\x02Wf@'
p499
tp500
bsba(iobjects_cluster_generation
Object
p501
(dp502
g4
I1
sg5
g6
(g7
(I0
tp503
g9
tp504
Rp505
(I1
(I2
tp506
g16
I00
S'\x0c\x91k\xf3\xfe\x83Z@Zy$\xac Af@'
p507
tp508
bsba(iobjects_cluster_generation
Object
p509
(dp510
g4
I2
sg5
g6
(g7
(I0
tp511
g9
tp512
Rp513
(I1
(I2
tp514
g16
I00
S'\x9eSz\xd4V*Z@\x80\xaf7\x9e/\x18f@'
p515
tp516
bsba(iobjects_cluster_generation
Object
p517
(dp518
g4
I3
sg5
g6
(g7
(I0
tp519
g9
tp520
Rp521
(I1
(I2
tp522
g16
I00
S'\xef\x90\xc6\xa8@3Z@N\xd3\xa9\xc9,pf@'
p523
tp524
bsba(iobjects_cluster_generation
Object
p525
(dp526
g4
I4
sg5
g6
(g7
(I0
tp527
g9
tp528
Rp529
(I1
(I2
tp530
g16
I00
S'\xaeO\xf2\x8b\x17\xd6Y@\x1d3=\xed\xcd\x0ff@'
p531
tp532
bsba(iobjects_cluster_generation
Object
p533
(dp534
g4
I5
sg5
g6
(g7
(I0
tp535
g9
tp536
Rp537
(I1
(I2
tp538
g16
I00
S'\xa2\xb8\x98\xf3\x9c\x9aZ@9\x00L\x88\xb3]f@'
p539
tp540
bsba(iobjects_cluster_generation
Object
p541
(dp542
g4
I6
sg5
g6
(g7
(I0
tp543
g9
tp544
Rp545
(I1
(I2
tp546
g16
I00
S'\x13\x17\x10{e\x85Z@N\xcc\x89gB\x05f@'
p547
tp548
bsba(iobjects_cluster_generation
Object
p549
(dp550
g4
I7
sg5
g6
(g7
(I0
tp551
g9
tp552
Rp553
(I1
(I2
tp554
g16
I00
S'\x02\x86\xc0\xe4Z4Z@[\xce\xb7\xd2\xce&f@'
p555
tp556
bsba(iobjects_cluster_generation
Object
p557
(dp558
g4
I8
sg5
g6
(g7
(I0
tp559
g9
tp560
Rp561
(I1
(I2
tp562
g16
I00
S'\xf5\x83_\x99\x0b\xa8Z@75\xfd\xa3\x14\\f@'
p563
tp564
bsba(iobjects_cluster_generation
Object
p565
(dp566
g4
I9
sg5
g6
(g7
(I0
tp567
g9
tp568
Rp569
(I1
(I2
tp570
g16
I00
S'?%\xcb\xcb\x8eGZ@>\xa6\x92S"of@'
p571
tp572
bsba(iobjects_cluster_generation
Object
p573
(dp574
g4
I10
sg5
g6
(g7
(I0
tp575
g9
tp576
Rp577
(I1
(I2
tp578
g16
I00
S'H\xf8\x1e\xe3\xfb\xd6Y@\x0bNz\xf4\x08Df@'
p579
tp580
bsba(iobjects_cluster_generation
Object
p581
(dp582
g4
I11
sg5
g6
(g7
(I0
tp583
g9
tp584
Rp585
(I1
(I2
tp586
g16
I00
S'\x85\xdf\xa8y\x94\x08Z@\xb6\xa1;r8\x14f@'
p587
tp588
bsba(iobjects_cluster_generation
Object
p589
(dp590
g4
I12
sg5
g6
(g7
(I0
tp591
g9
tp592
Rp593
(I1
(I2
tp594
g16
I00
S'\xab\x92\x19\xc4\xbc6Z@\x8c\x7f\x08\xb8\xa7*f@'
p595
tp596
bsba(iobjects_cluster_generation
Object
p597
(dp598
g4
I13
sg5
g6
(g7
(I0
tp599
g9
tp600
Rp601
(I1
(I2
tp602
g16
I00
S']#\xaa"\x1d\xbeY@\x96\x89\xd8\xfe4\xfce@'
p603
tp604
bsba(iobjects_cluster_generation
Object
p605
(dp606
g4
I14
sg5
g6
(g7
(I0
tp607
g9
tp608
Rp609
(I1
(I2
tp610
g16
I00
S'2\xf7\xdcM\xb7\x9fZ@\xb5\xd0\xbe\x14\x92Cf@'
p611
tp612
bsba(iobjects_cluster_generation
Object
p613
(dp614
g4
I15
sg5
g6
(g7
(I0
tp615
g9
tp616
Rp617
(I1
(I2
tp618
g16
I00
S'5\x07Ci\xce\x9bZ@c\x82\x08F\xc0:f@'
p619
tp620
bsba(iobjects_cluster_generation
Object
p621
(dp622
g4
I16
sg5
g6
(g7
(I0
tp623
g9
tp624
Rp625
(I1
(I2
tp626
g16
I00
S'\xc4\x123\xfcX\xb0Y@\x9e\x1f|\xb1f\tf@'
p627
tp628
bsba(iobjects_cluster_generation
Object
p629
(dp630
g4
I17
sg5
g6
(g7
(I0
tp631
g9
tp632
Rp633
(I1
(I2
tp634
g16
I00
S'jP\xccV!:Y@O\x7f-\x97XZf@'
p635
tp636
bsba(iobjects_cluster_generation
Object
p637
(dp638
g4
I18
sg5
g6
(g7
(I0
tp639
g9
tp640
Rp641
(I1
(I2
tp642
g16
I00
S'\x05\xe5\x7fM\x18>Z@\xb5\x12\xfbJ\x00&f@'
p643
tp644
bsba(iobjects_cluster_generation
Object
p645
(dp646
g4
I19
sg5
g6
(g7
(I0
tp647
g9
tp648
Rp649
(I1
(I2
tp650
g16
I00
S'`\xb0_h9;Z@\xe6aq\x80k\xa4f@'
p651
tp652
bsba(iobjects_cluster_generation
Object
p653
(dp654
g4
I0
sg5
g6
(g7
(I0
tp655
g9
tp656
Rp657
(I1
(I2
tp658
g16
I00
S'_\xa3L\x19@\x15\\@n42\x01\xc5\xeef@'
p659
tp660
bsba(iobjects_cluster_generation
Object
p661
(dp662
g4
I1
sg5
g6
(g7
(I0
tp663
g9
tp664
Rp665
(I1
(I2
tp666
g16
I00
S'8\xa9\xcb\xbb,\x8f\\@\xb2\xbc]\xcf=Kg@'
p667
tp668
bsba(iobjects_cluster_generation
Object
p669
(dp670
g4
I2
sg5
g6
(g7
(I0
tp671
g9
tp672
Rp673
(I1
(I2
tp674
g16
I00
S"\x95\xc2\xdd\x03\xe5\x8f]@'\x1e\x0b\t\xa5\x08g@"
p675
tp676
bsba(iobjects_cluster_generation
Object
p677
(dp678
g4
I3
sg5
g6
(g7
(I0
tp679
g9
tp680
Rp681
(I1
(I2
tp682
g16
I00
S'\xf5m\xa3\xef\x88([@M\x08\x05`mFg@'
p683
tp684
bsba(iobjects_cluster_generation
Object
p685
(dp686
g4
I4
sg5
g6
(g7
(I0
tp687
g9
tp688
Rp689
(I1
(I2
tp690
g16
I00
S'<\xc3Z\x19\xdc\xda\\@+0\xea\xec\xf2"g@'
p691
tp692
bsba(iobjects_cluster_generation
Object
p693
(dp694
g4
I5
sg5
g6
(g7
(I0
tp695
g9
tp696
Rp697
(I1
(I2
tp698
g16
I00
S'\x82\xe4\x9c\x13\x15;[@f%\xb4\xe1\xdd\xa4f@'
p699
tp700
bsba(iobjects_cluster_generation
Object
p701
(dp702
g4
I6
sg5
g6
(g7
(I0
tp703
g9
tp704
Rp705
(I1
(I2
tp706
g16
I00
S'n| y)\xe2[@\xc9N\x15\xb8\xdd\x15g@'
p707
tp708
bsba(iobjects_cluster_generation
Object
p709
(dp710
g4
I7
sg5
g6
(g7
(I0
tp711
g9
tp712
Rp713
(I1
(I2
tp714
g16
I00
S'\xa4\r\xbbr>V\\@\xfdZ\xbb\x84\x8a\xe7f@'
p715
tp716
bsba(iobjects_cluster_generation
Object
p717
(dp718
g4
I8
sg5
g6
(g7
(I0
tp719
g9
tp720
Rp721
(I1
(I2
tp722
g16
I00
S'J\xe9\x16\xbc\xaaV]@\xd0 \xf4\xcc#\xfef@'
p723
tp724
bsba(iobjects_cluster_generation
Object
p725
(dp726
g4
I9
sg5
g6
(g7
(I0
tp727
g9
tp728
Rp729
(I1
(I2
tp730
g16
I00
S'\xcb \xd0\xf3P\xe7\\@\x96\x19\x19\x8ek$g@'
p731
tp732
bsba(iobjects_cluster_generation
Object
p733
(dp734
g4
I10
sg5
g6
(g7
(I0
tp735
g9
tp736
Rp737
(I1
(I2
tp738
g16
I00
S'|\x87\x80^V\xa5\\@\xf6\xd7.\xe1I\xfff@'
p739
tp740
bsba(iobjects_cluster_generation
Object
p741
(dp742
g4
I11
sg5
g6
(g7
(I0
tp743
g9
tp744
Rp745
(I1
(I2
tp746
g16
I00
S'=,\xd1\x883?\\@Kz\xee\xd6V\x10g@'
p747
tp748
bsba(iobjects_cluster_generation
Object
p749
(dp750
g4
I12
sg5
g6
(g7
(I0
tp751
g9
tp752
Rp753
(I1
(I2
tp754
g16
I00
S'\xd3\x95LB>\xab[@\x83uw\x9a\x17-g@'
p755
tp756
bsba(iobjects_cluster_generation
Object
p757
(dp758
g4
I13
sg5
g6
(g7
(I0
tp759
g9
tp760
Rp761
(I1
(I2
tp762
g16
I00
S'\xdd\x95\xaf\x14Q\x01\\@\xbf\xad`\xabS g@'
p763
tp764
bsba(iobjects_cluster_generation
Object
p765
(dp766
g4
I14
sg5
g6
(g7
(I0
tp767
g9
tp768
Rp769
(I1
(I2
tp770
g16
I00
S'\x8fN\xe1\xa0\xf94]@\xc0V\x87\x92B\x15g@'
p771
tp772
bsba(iobjects_cluster_generation
Object
p773
(dp774
g4
I15
sg5
g6
(g7
(I0
tp775
g9
tp776
Rp777
(I1
(I2
tp778
g16
I00
S'+{\xcfL\xf2\x8c]@_\xb1\xb6\x89\x87 g@'
p779
tp780
bsba(iobjects_cluster_generation
Object
p781
(dp782
g4
I16
sg5
g6
(g7
(I0
tp783
g9
tp784
Rp785
(I1
(I2
tp786
g16
I00
S'\x87U\xe3\xd2\xc2F[@\t\xdba &\xc6f@'
p787
tp788
bsba(iobjects_cluster_generation
Object
p789
(dp790
g4
I17
sg5
g6
(g7
(I0
tp791
g9
tp792
Rp793
(I1
(I2
tp794
g16
I00
S'\x92\x1d\x11\x87\xbe\x9e\\@\x12!\xf5|\x0c\xd4f@'
p795
tp796
bsba(iobjects_cluster_generation
Object
p797
(dp798
g4
I18
sg5
g6
(g7
(I0
tp799
g9
tp800
Rp801
(I1
(I2
tp802
g16
I00
S'z5pK\xaaM[@\x07\xcc\x86-\x94ag@'
p803
tp804
bsba(iobjects_cluster_generation
Object
p805
(dp806
g4
I19
sg5
g6
(g7
(I0
tp807
g9
tp808
Rp809
(I1
(I2
tp810
g16
I00
S'\\\xb0{\xbf\x85\x11\\@"\xd7\xea\xd4l\x01g@'
p811
tp812
bsbaag6
(g7
(I0
tp813
g9
tp814
Rp815
(I1
(I100
tp816
g13
(S'i4'
p817
I0
I1
tp818
Rp819
(I3
S'<'
p820
NNNI-1
I-1
I0
tp821
bI00
S'\x02\x00\x00\x00\x02\x00\x00\x00\x02\x00\x00\x00\x02\x00\x00\x00\x02\x00\x00\x00\x02\x00\x00\x00\x02\x00\x00\x00\x02\x00\x00\x00\x02\x00\x00\x00\x02\x00\x00\x00\x02\x00\x00\x00\x02\x00\x00\x00\x02\x00\x00\x00\x02\x00\x00\x00\x02\x00\x00\x00\x02\x00\x00\x00\x02\x00\x00\x00\x02\x00\x00\x00\x02\x00\x00\x00\x02\x00\x00\x00\x03\x00\x00\x00\x03\x00\x00\x00\x03\x00\x00\x00\x03\x00\x00\x00\x03\x00\x00\x00\x03\x00\x00\x00\x03\x00\x00\x00\x03\x00\x00\x00\x03\x00\x00\x00\x03\x00\x00\x00\x03\x00\x00\x00\x03\x00\x00\x00\x03\x00\x00\x00\x03\x00\x00\x00\x03\x00\x00\x00\x03\x00\x00\x00\x03\x00\x00\x00\x03\x00\x00\x00\x03\x00\x00\x00\x03\x00\x00\x00\x00\x00\x00\x00\x00\x00\x00\x00\x00\x00\x00\x00\x00\x00\x00\x00\x00\x00\x00\x00\x00\x00\x00\x00\x00\x00\x00\x00\x00\x00\x00\x00\x00\x00\x00\x00\x00\x00\x00\x00\x00\x00\x00\x00\x00\x00\x00\x00\x00\x00\x00\x00\x00\x00\x00\x00\x00\x00\x00\x00\x00\x00\x00\x00\x00\x00\x00\x00\x00\x00\x00\x00\x00\x00\x00\x00\x00\x00\x00\x00\x01\x00\x00\x00\x01\x00\x00\x00\x01\x00\x00\x00\x01\x00\x00\x00\x01\x00\x00\x00\x01\x00\x00\x00\x01\x00\x00\x00\x01\x00\x00\x00\x01\x00\x00\x00\x01\x00\x00\x00\x01\x00\x00\x00\x01\x00\x00\x00\x01\x00\x00\x00\x01\x00\x00\x00\x01\x00\x00\x00\x01\x00\x00\x00\x01\x00\x00\x00\x01\x00\x00\x00\x01\x00\x00\x00\x01\x00\x00\x00\x04\x00\x00\x00\x04\x00\x00\x00\x04\x00\x00\x00\x04\x00\x00\x00\x04\x00\x00\x00\x01\x00\x00\x00\x04\x00\x00\x00\x04\x00\x00\x00\x04\x00\x00\x00\x04\x00\x00\x00\x04\x00\x00\x00\x04\x00\x00\x00\x04\x00\x00\x00\x04\x00\x00\x00\x04\x00\x00\x00\x04\x00\x00\x00\x04\x00\x00\x00\x04\x00\x00\x00\x04\x00\x00\x00\x04\x00\x00\x00'
p822
tp823
ba.