(lp0
(iAssessor_model
Assessor
p1
(dp2
S'n_feat_param'
p3
I4
sS'volatility'
p4
F0.1
sba(iAssessor_model
Assessor
p5
(dp6
g3
I4
sg4
F2.09
sba(iAssessor_model
Assessor
p7
(dp8
g3
I4
sg4
F4.079999999999999
sba(iAssessor_model
Assessor
p9
(dp10
g3
I4
sg4
F6.0699999999999985
sba(iAssessor_model
Assessor
p11
(dp12
g3
I4
sg4
F8.059999999999999
sba(iAssessor_model
Assessor
p13
(dp14
g3
I4
sg4
F10.049999999999999
sba(iAssessor_model
Assessor
p15
(dp16
g3
I4
sg4
F12.039999999999997
sba(iAssessor_model
Assessor
p17
(dp18
g3
I4
sg4
F14.029999999999998
sba(iAssessor_model
Assessor
p19
(dp20
g3
I4
sg4
F16.02
sba(iAssessor_model
Assessor
p21
(dp22
g3
I4
sg4
F18.009999999999998
sba.