(lp0
(iAssessor_model
Assessor
p1
(dp2
S'n_feat_param'
p3
I4
sS'volatility'
p4
F0.1
sba(iAssessor_model
Assessor
p5
(dp6
g3
I4
sg4
F0.1
sba(iAssessor_model
Assessor
p7
(dp8
g3
I4
sg4
F0.1
sba(iAssessor_model
Assessor
p9
(dp10
g3
I4
sg4
F0.1
sba(iAssessor_model
Assessor
p11
(dp12
g3
I4
sg4
F0.1
sba(iAssessor_model
Assessor
p13
(dp14
g3
I4
sg4
F0.1
sba(iAssessor_model
Assessor
p15
(dp16
g3
I4
sg4
F0.1
sba(iAssessor_model
Assessor
p17
(dp18
g3
I4
sg4
F0.1
sba(iAssessor_model
Assessor
p19
(dp20
g3
I4
sg4
F0.1
sba(iAssessor_model
Assessor
p21
(dp22
g3
I4
sg4
F0.1
sba.